; Function Attrs: nounwind uwtable
define void @b2Chain_SetFriction(i64 %0, float noundef %1) local_unnamed_addr #0 {
  %.sroa.2.0.extract.shift = lshr i64 %0, 32
  %3 = trunc nuw i64 %.sroa.2.0.extract.shift to i32
  %4 = and i32 %3, 65535
  %5 = tail call ptr @b2GetWorldLocked(i32 noundef %4) #10
  %6 = icmp eq ptr %5, null
  br i1 %6, label %.loopexit, label %7

7:                                                ; preds = %2
  %8 = getelementptr i8, ptr %5, i64 1272
  %.val20 = load ptr, ptr %8, align 8, !tbaa !10
  %9 = shl i64 %0, 32
  %sext.i = add i64 %9, -4294967296
  %10 = ashr exact i64 %sext.i, 32
  %11 = getelementptr inbounds %struct.b2ChainShape, ptr %.val20, i64 %10
  %12 = getelementptr inbounds nuw i8, ptr %11, i64 16
  %13 = load i32, ptr %12, align 8, !tbaa !129
  %14 = icmp sgt i32 %13, 0
  br i1 %14, label %.lr.ph, label %._crit_edge

.lr.ph:                                           ; preds = %7
  %15 = getelementptr inbounds nuw i8, ptr %11, i64 32
  %16 = load ptr, ptr %15, align 8, !tbaa !130
  %wide.trip.count = zext nneg i32 %13 to i64
  br label %23

._crit_edge:                                      ; preds = %23, %7
  %17 = getelementptr inbounds nuw i8, ptr %11, i64 12
  %18 = load i32, ptr %17, align 4, !tbaa !143
  %19 = icmp sgt i32 %18, 0
  br i1 %19, label %.lr.ph24, label %.loopexit

.lr.ph24:                                         ; preds = %._crit_edge
  %20 = getelementptr inbounds nuw i8, ptr %11, i64 24
  %21 = load ptr, ptr %20, align 8, !tbaa !144
  %22 = getelementptr inbounds nuw i8, ptr %5, i64 1256
  %.val = load ptr, ptr %22, align 8, !tbaa !14
  %wide.trip.count29 = zext nneg i32 %18 to i64
  br label %25

23:                                               ; preds = %.lr.ph, %23
  %indvars.iv = phi i64 [ 0, %.lr.ph ], [ %indvars.iv.next, %23 ]
  %24 = getelementptr inbounds nuw %struct.b2SurfaceMaterial, ptr %16, i64 %indvars.iv
  store float %1, ptr %24, align 4, !tbaa !148
  %indvars.iv.next = add nuw nsw i64 %indvars.iv, 1
  %exitcond.not = icmp eq i64 %indvars.iv.next, %wide.trip.count
  br i1 %exitcond.not, label %._crit_edge, label %23, !llvm.loop !219

25:                                               ; preds = %.lr.ph24, %25
  %indvars.iv26 = phi i64 [ 0, %.lr.ph24 ], [ %indvars.iv.next27, %25 ]
  %26 = getelementptr inbounds nuw i32, ptr %21, i64 %indvars.iv26
  %27 = load i32, ptr %26, align 4, !tbaa !66
  %28 = sext i32 %27 to i64
  %29 = getelementptr inbounds %struct.b2Shape, ptr %.val, i64 %28, i32 7
  store float %1, ptr %29, align 4, !tbaa !174
  %indvars.iv.next27 = add nuw nsw i64 %indvars.iv26, 1
  %exitcond30.not = icmp eq i64 %indvars.iv.next27, %wide.trip.count29
  br i1 %exitcond30.not, label %.loopexit, label %25, !llvm.loop !220

.loopexit:                                        ; preds = %25, %._crit_edge, %2
  ret void
}